; Function Attrs: mustprogress uwtable
define hidden void @_ZNK16bound_propagator18collect_statisticsER10statistics(ptr nocapture noundef nonnull readonly align 8 dereferenceable(280) %this, ptr noundef nonnull align 8 dereferenceable(16) %st) local_unnamed_addr #3 align 2 {
entry:
  %m_conflicts = getelementptr inbounds i8, ptr %this, i64 256
  %0 = load i32, ptr %m_conflicts, align 8
  tail call void @_ZN10statistics6updateEPKcj(ptr noundef nonnull align 8 dereferenceable(16) %st, ptr noundef nonnull @.str.8, i32 noundef %0)
  %m_propagations = getelementptr inbounds i8, ptr %this, i64 260
  %1 = load i32, ptr %m_propagations, align 4
  tail call void @_ZN10statistics6updateEPKcj(ptr noundef nonnull align 8 dereferenceable(16) %st, ptr noundef nonnull @.str.9, i32 noundef %1)
  %m_false_alarms = getelementptr inbounds i8, ptr %this, i64 264
  %2 = load i32, ptr %m_false_alarms, align 8
  tail call void @_ZN10statistics6updateEPKcj(ptr noundef nonnull align 8 dereferenceable(16) %st, ptr noundef nonnull @.str.10, i32 noundef %2)
  ret void
}